; Function Attrs: mustprogress nofree nosync nounwind willreturn memory(read, inaccessiblemem: none) uwtable
define dso_local noundef i32 @_ZNK4Type16get_struct_depthEv(ptr nocapture noundef nonnull readonly align 8 dereferenceable(136) %0) local_unnamed_addr #8 align 2 {
  %2 = load i32, ptr %0, align 8
  %3 = icmp eq i32 %2, 3
  br i1 %3, label %.preheader, label %._crit_edge

.preheader:                                       ; preds = %1
  %4 = getelementptr inbounds i8, ptr %0, i64 48
  %5 = getelementptr inbounds i8, ptr %0, i64 56
  %6 = load ptr, ptr %5, align 8
  %7 = load ptr, ptr %4, align 8
  %.not = icmp eq ptr %6, %7
  br i1 %.not, label %._crit_edge, label %.lr.ph.preheader

.lr.ph.preheader:                                 ; preds = %.preheader
  %8 = ptrtoint ptr %6 to i64
  %9 = ptrtoint ptr %7 to i64
  %10 = sub i64 %8, %9
  %11 = ashr exact i64 %10, 3
  %umax = tail call i64 @llvm.umax.i64(i64 %11, i64 1)
  br label %.lr.ph

.lr.ph:                                           ; preds = %.lr.ph.preheader, %.lr.ph
  %.01014 = phi i64 [ %15, %.lr.ph ], [ 0, %.lr.ph.preheader ]
  %.01113 = phi i32 [ %spec.select, %.lr.ph ], [ 0, %.lr.ph.preheader ]
  %12 = getelementptr inbounds ptr, ptr %7, i64 %.01014
  %13 = load ptr, ptr %12, align 8
  %14 = tail call noundef i32 @_ZNK4Type16get_struct_depthEv(ptr noundef nonnull align 8 dereferenceable(136) %13)
  %spec.select = tail call i32 @llvm.smax.i32(i32 %14, i32 %.01113)
  %15 = add nuw i64 %.01014, 1
  %exitcond.not = icmp eq i64 %15, %umax
  br i1 %exitcond.not, label %._crit_edge.loopexit, label %.lr.ph, !llvm.loop !7

._crit_edge.loopexit:                             ; preds = %.lr.ph
  %16 = add nuw nsw i32 %spec.select, 1
  br label %._crit_edge

._crit_edge:                                      ; preds = %.preheader, %._crit_edge.loopexit, %1
  %.0 = phi i32 [ 0, %1 ], [ 1, %.preheader ], [ %16, %._crit_edge.loopexit ]
  ret i32 %.0
}